; Function Attrs: mustprogress uwtable
define hidden void @_ZN3ue214SlotCacheEntryC2ERKNS_8NGHolderERKNS_9CharReachEjbj(ptr nocapture noundef nonnull writeonly align 8 dereferenceable(52) %this, ptr noundef nonnull align 8 dereferenceable(136) %prefix_in, ptr nocapture noundef nonnull readonly align 8 dereferenceable(32) %escapes_in, i32 noundef %parent_in, i1 noundef zeroext %is_reset_in, i32 noundef %slot_in) unnamed_addr #2 align 2 personality ptr @__gxx_personality_v0 {
_ZNSt10unique_ptrIN3ue28NGHolderESt14default_deleteIS1_EED2Ev.exit:
  %ref.tmp = alloca %"class.std::unique_ptr.2", align 8
  %frombool = zext i1 %is_reset_in to i8
  call void @_ZN3ue211cloneHolderERKNS_8NGHolderE(ptr nonnull sret(%"class.std::unique_ptr.2") align 8 %ref.tmp, ptr noundef nonnull align 8 dereferenceable(136) %prefix_in)
  %0 = load ptr, ptr %ref.tmp, align 8
  store ptr %0, ptr %this, align 8
  %escapes = getelementptr inbounds i8, ptr %this, i64 8
  call void @llvm.memcpy.p0.p0.i64(ptr noundef nonnull align 8 dereferenceable(32) %escapes, ptr noundef nonnull align 8 dereferenceable(32) %escapes_in, i64 32, i1 false)
  %parent_slot = getelementptr inbounds i8, ptr %this, i64 40
  store i32 %parent_in, ptr %parent_slot, align 8
  %is_reset = getelementptr inbounds i8, ptr %this, i64 44
  store i8 %frombool, ptr %is_reset, align 4
  %slot = getelementptr inbounds i8, ptr %this, i64 48
  store i32 %slot_in, ptr %slot, align 8
  ret void
}